; Function Attrs: null_pointer_is_valid sspstrong uwtable
define internal i32 @dissect_ngap_SupportedTAItem(ptr noundef %0, i32 noundef %1, ptr noundef %2, ptr noundef %3, i32 noundef %4) #0 {
  %6 = getelementptr inbounds nuw i8, ptr %2, i64 16
  %7 = load ptr, ptr %6, align 8
  %8 = getelementptr inbounds nuw i8, ptr %7, i64 408
  %9 = load ptr, ptr %8, align 8
  %10 = load i32, ptr @proto_ngap, align 4
  %11 = tail call ptr @p_get_proto_data(ptr noundef %9, ptr noundef %7, i32 noundef %10, i32 noundef 0)
  %.not.i = icmp eq ptr %11, null
  br i1 %.not.i, label %12, label %ngap_get_private_data.exit

12:                                               ; preds = %5
  %13 = load ptr, ptr %8, align 8
  %14 = tail call noalias dereferenceable_or_null(72) ptr @wmem_alloc0(ptr noundef %13, i64 noundef 72) #13
  %15 = getelementptr inbounds nuw i8, ptr %14, i64 24
  store i32 -1, ptr %15, align 8
  %16 = getelementptr inbounds nuw i8, ptr %14, i64 56
  store i8 -1, ptr %16, align 8
  %17 = load ptr, ptr %8, align 8
  %18 = load i32, ptr @proto_ngap, align 4
  tail call void @p_add_proto_data(ptr noundef %17, ptr noundef %7, i32 noundef %18, i32 noundef 0, ptr noundef %14)
  br label %ngap_get_private_data.exit

ngap_get_private_data.exit:                       ; preds = %5, %12
  %.0.i = phi ptr [ %11, %5 ], [ %14, %12 ]
  %19 = load ptr, ptr %6, align 8
  %20 = getelementptr inbounds nuw i8, ptr %19, i64 80
  %21 = load ptr, ptr %20, align 8
  %22 = getelementptr inbounds nuw i8, ptr %21, i64 57
  %23 = load i16, ptr %22, align 1
  %24 = and i16 %23, 8
  %.not = icmp eq i16 %24, 0
  br i1 %.not, label %25, label %43

25:                                               ; preds = %ngap_get_private_data.exit
  %26 = getelementptr inbounds nuw i8, ptr %.0.i, i64 20
  %27 = load i32, ptr %26, align 4
  %28 = icmp eq i32 %27, 0
  br i1 %28, label %29, label %43

29:                                               ; preds = %25
  %30 = getelementptr inbounds nuw i8, ptr %.0.i, i64 8
  %31 = load i32, ptr %30, align 8
  switch i32 %31, label %43 [
    i32 21, label %32
    i32 35, label %32
  ]

32:                                               ; preds = %29, %29
  %33 = getelementptr inbounds nuw i8, ptr %19, i64 408
  %34 = load ptr, ptr %33, align 8
  %35 = tail call noalias dereferenceable_or_null(16) ptr @wmem_alloc0(ptr noundef %34, i64 noundef 16) #13
  %36 = getelementptr inbounds nuw i8, ptr %.0.i, i64 32
  store ptr %35, ptr %36, align 8
  %37 = load ptr, ptr %6, align 8
  %38 = getelementptr inbounds nuw i8, ptr %37, i64 408
  %39 = load ptr, ptr %38, align 8
  %40 = tail call noalias ptr @wmem_array_new(ptr noundef %39, i64 noundef 4)
  %41 = load ptr, ptr %36, align 8
  %42 = getelementptr inbounds nuw i8, ptr %41, i64 8
  store ptr %40, ptr %42, align 8
  br label %43

43:                                               ; preds = %29, %32, %25, %ngap_get_private_data.exit
  %44 = load i32, ptr @ett_ngap_SupportedTAItem, align 4
  %45 = tail call i32 @dissect_per_sequence(ptr noundef %0, i32 noundef %1, ptr noundef %2, ptr noundef %3, i32 noundef %4, i32 noundef %44, ptr noundef nonnull @SupportedTAItem_sequence)
  %46 = getelementptr inbounds nuw i8, ptr %.0.i, i64 32
  store ptr null, ptr %46, align 8
  ret i32 %45
}